target datalayout = "e-m:e-p270:32:32-p271:32:32-p272:64:64-i64:64-i128:128-f80:128-n8:16:32:64-S128"
target triple = "x86_64-pc-linux-gnu"

%struct.CommonModeInfoParams = type { i32, i32, i32, i32, i32, ptr, i32, i32, i8, ptr, i32, i32, ptr, ptr, ptr, ptr }

; Function Attrs: nounwind uwtable
define internal i32 @calc_mi_size(i32 noundef %0) #0 {
  %2 = alloca i32, align 4
  store i32 %0, ptr %2, align 4
  %3 = load i32, ptr %2, align 4
  %4 = add nsw i32 %3, 31
  %5 = and i32 %4, -32
  ret i32 %5
}

; Function Attrs: nounwind uwtable
define internal void @dec_set_mb_mi(ptr noundef %0, i32 noundef %1, i32 noundef %2) #0 {
  %4 = alloca ptr, align 8
  %5 = alloca i32, align 4
  %6 = alloca i32, align 4
  %7 = alloca i32, align 4
  %8 = alloca i32, align 4
  store ptr %0, ptr %4, align 8
  store i32 %1, ptr %5, align 4
  store i32 %2, ptr %6, align 4
  %9 = load i32, ptr %5, align 4
  %10 = add nsw i32 %9, 7
  %11 = and i32 %10, -8
  store i32 %11, ptr %7, align 4
  %12 = load i32, ptr %6, align 4
  %13 = add nsw i32 %12, 7
  %14 = and i32 %13, -8
  store i32 %14, ptr %8, align 4
  %15 = load i32, ptr %7, align 4
  %16 = ashr i32 %15, 2
  %17 = load ptr, ptr %4, align 8
  %18 = getelementptr inbounds nuw %struct.CommonModeInfoParams, ptr %17, i32 0, i32 4
  store i32 %16, ptr %18, align 8
  %19 = load i32, ptr %8, align 4
  %20 = ashr i32 %19, 2
  %21 = load ptr, ptr %4, align 8
  %22 = getelementptr inbounds nuw %struct.CommonModeInfoParams, ptr %21, i32 0, i32 3
  store i32 %20, ptr %22, align 4
  %23 = load ptr, ptr %4, align 8
  %24 = getelementptr inbounds nuw %struct.CommonModeInfoParams, ptr %23, i32 0, i32 4
  %25 = load i32, ptr %24, align 8
  %26 = call i32 @calc_mi_size(i32 noundef %25)
  %27 = load ptr, ptr %4, align 8
  %28 = getelementptr inbounds nuw %struct.CommonModeInfoParams, ptr %27, i32 0, i32 11
  store i32 %26, ptr %28, align 4
  %29 = load ptr, ptr %4, align 8
  %30 = getelementptr inbounds nuw %struct.CommonModeInfoParams, ptr %29, i32 0, i32 4
  %31 = load i32, ptr %30, align 8
  %32 = add nsw i32 %31, 2
  %33 = ashr i32 %32, 2
  %34 = load ptr, ptr %4, align 8
  %35 = getelementptr inbounds nuw %struct.CommonModeInfoParams, ptr %34, i32 0, i32 1
  store i32 %33, ptr %35, align 4
  %36 = load ptr, ptr %4, align 8
  %37 = getelementptr inbounds nuw %struct.CommonModeInfoParams, ptr %36, i32 0, i32 3
  %38 = load i32, ptr %37, align 4
  %39 = add nsw i32 %38, 2
  %40 = ashr i32 %39, 2
  %41 = load ptr, ptr %4, align 8
  %42 = getelementptr inbounds nuw %struct.CommonModeInfoParams, ptr %41, i32 0, i32 0
  store i32 %40, ptr %42, align 8
  %43 = load ptr, ptr %4, align 8
  %44 = getelementptr inbounds nuw %struct.CommonModeInfoParams, ptr %43, i32 0, i32 0
  %45 = load i32, ptr %44, align 8
  %46 = load ptr, ptr %4, align 8
  %47 = getelementptr inbounds nuw %struct.CommonModeInfoParams, ptr %46, i32 0, i32 1
  %48 = load i32, ptr %47, align 4
  %49 = mul nsw i32 %45, %48
  %50 = load ptr, ptr %4, align 8
  %51 = getelementptr inbounds nuw %struct.CommonModeInfoParams, ptr %50, i32 0, i32 2
  store i32 %49, ptr %51, align 8
  %52 = load ptr, ptr %4, align 8
  %53 = getelementptr inbounds nuw %struct.CommonModeInfoParams, ptr %52, i32 0, i32 8
  store i8 0, ptr %53, align 8
  %54 = load ptr, ptr %4, align 8
  %55 = getelementptr inbounds nuw %struct.CommonModeInfoParams, ptr %54, i32 0, i32 11
  %56 = load i32, ptr %55, align 4
  %57 = load ptr, ptr %4, align 8
  %58 = getelementptr inbounds nuw %struct.CommonModeInfoParams, ptr %57, i32 0, i32 7
  store i32 %56, ptr %58, align 4
  ret void
}