; Function Attrs: mustprogress nofree norecurse nosync nounwind willreturn memory(argmem: write) uwtable
define internal void @dec_set_mb_mi(ptr nocapture noundef writeonly %0, i32 noundef %1, i32 noundef %2) #5 {
  %4 = add nsw i32 %1, 7
  %5 = add nsw i32 %2, 7
  %6 = ashr i32 %4, 2
  %7 = and i32 %6, -2
  %8 = getelementptr inbounds nuw i8, ptr %0, i64 16
  store i32 %7, ptr %8, align 8
  %9 = ashr i32 %5, 2
  %10 = and i32 %9, -2
  %11 = getelementptr inbounds nuw i8, ptr %0, i64 12
  store i32 %10, ptr %11, align 4
  %12 = add nsw i32 %7, 31
  %13 = and i32 %12, -32
  %14 = getelementptr inbounds nuw i8, ptr %0, i64 60
  store i32 %13, ptr %14, align 4
  %15 = add nsw i32 %6, 2
  %16 = ashr i32 %15, 2
  %17 = getelementptr inbounds nuw i8, ptr %0, i64 4
  store i32 %16, ptr %17, align 4
  %18 = add nsw i32 %9, 2
  %19 = ashr i32 %18, 2
  store i32 %19, ptr %0, align 8
  %20 = mul nsw i32 %19, %16
  %21 = getelementptr inbounds nuw i8, ptr %0, i64 8
  store i32 %20, ptr %21, align 8
  %22 = getelementptr inbounds nuw i8, ptr %0, i64 40
  store i8 0, ptr %22, align 8
  %23 = getelementptr inbounds nuw i8, ptr %0, i64 36
  store i32 %13, ptr %23, align 4
  ret void
}